target datalayout = "e-m:e-p270:32:32-p271:32:32-p272:64:64-i64:64-i128:128-f80:128-n8:16:32:64-S128"
target triple = "x86_64-pc-linux-gnu"

@hf_gsm_a_bssmap_spare = internal global i32 0, align 4
@hf_gsm_a_bssmap_positioning_data_discriminator = internal global i32 0, align 4
@hf_gsm_a_bssmap_positioning_method = internal global i32 0, align 4
@hf_gsm_a_bssmap_positioning_method_usage = internal global i32 0, align 4

; Function Attrs: null_pointer_is_valid sspstrong uwtable
define internal zeroext i16 @be_pos_data(ptr noundef %0, ptr noundef %1, ptr noundef %2, i32 noundef %3, i32 noundef %4, ptr noundef %5, i32 noundef %6) #1 {
  %8 = alloca ptr, align 8
  %9 = alloca ptr, align 8
  %10 = alloca ptr, align 8
  %11 = alloca i32, align 4
  %12 = alloca i32, align 4
  %13 = alloca ptr, align 8
  %14 = alloca i32, align 4
  %15 = alloca i32, align 4
  %16 = alloca i8, align 1
  %17 = alloca i64, align 8
  %18 = alloca i32, align 4
  store ptr %0, ptr %8, align 8
  store ptr %1, ptr %9, align 8
  store ptr %2, ptr %10, align 8
  store i32 %3, ptr %11, align 4
  store i32 %4, ptr %12, align 4
  store ptr %5, ptr %13, align 8
  store i32 %6, ptr %14, align 4
  call void @llvm.lifetime.start.p0(i64 4, ptr %15) #5
  call void @llvm.lifetime.start.p0(i64 1, ptr %16) #5
  call void @llvm.lifetime.start.p0(i64 8, ptr %17) #5
  call void @llvm.lifetime.start.p0(i64 4, ptr %18) #5
  %19 = load i32, ptr %11, align 4
  store i32 %19, ptr %15, align 4
  %20 = load i32, ptr %11, align 4
  %21 = shl i32 %20, 3
  store i32 %21, ptr %18, align 4
  %22 = load ptr, ptr %9, align 8
  %23 = load i32, ptr @hf_gsm_a_bssmap_spare, align 4
  %24 = load ptr, ptr %8, align 8
  %25 = load i32, ptr %18, align 4
  %26 = call ptr @proto_tree_add_bits_item(ptr noundef %22, i32 noundef %23, ptr noundef %24, i32 noundef %25, i32 noundef 4, i32 noundef 0)
  %27 = load i32, ptr %18, align 4
  %28 = add i32 %27, 4
  store i32 %28, ptr %18, align 4
  %29 = load ptr, ptr %9, align 8
  %30 = load i32, ptr @hf_gsm_a_bssmap_positioning_data_discriminator, align 4
  %31 = load ptr, ptr %8, align 8
  %32 = load i32, ptr %18, align 4
  %33 = call ptr @proto_tree_add_bits_ret_val(ptr noundef %29, i32 noundef %30, ptr noundef %31, i32 noundef %32, i32 noundef 4, ptr noundef %17, i32 noundef 0)
  %34 = load i32, ptr %18, align 4
  %35 = add i32 %34, 4
  store i32 %35, ptr %18, align 4
  %36 = load i32, ptr %15, align 4
  %37 = add i32 %36, 1
  store i32 %37, ptr %15, align 4
  %38 = load i64, ptr %17, align 8
  %39 = icmp eq i64 %38, 0
  br i1 %39, label %40, label %68

40:                                               ; preds = %7
  store i8 0, ptr %16, align 1
  br label %41

41:                                               ; preds = %64, %40
  %42 = load i8, ptr %16, align 1
  %43 = zext i8 %42 to i32
  %44 = load i32, ptr %12, align 4
  %45 = sub i32 %44, 1
  %46 = icmp ult i32 %43, %45
  br i1 %46, label %47, label %67

47:                                               ; preds = %41
  %48 = load ptr, ptr %9, align 8
  %49 = load i32, ptr @hf_gsm_a_bssmap_positioning_method, align 4
  %50 = load ptr, ptr %8, align 8
  %51 = load i32, ptr %18, align 4
  %52 = call ptr @proto_tree_add_bits_item(ptr noundef %48, i32 noundef %49, ptr noundef %50, i32 noundef %51, i32 noundef 5, i32 noundef 0)
  %53 = load i32, ptr %18, align 4
  %54 = add i32 %53, 5
  store i32 %54, ptr %18, align 4
  %55 = load ptr, ptr %9, align 8
  %56 = load i32, ptr @hf_gsm_a_bssmap_positioning_method_usage, align 4
  %57 = load ptr, ptr %8, align 8
  %58 = load i32, ptr %18, align 4
  %59 = call ptr @proto_tree_add_bits_item(ptr noundef %55, i32 noundef %56, ptr noundef %57, i32 noundef %58, i32 noundef 3, i32 noundef 0)
  %60 = load i32, ptr %18, align 4
  %61 = add i32 %60, 3
  store i32 %61, ptr %18, align 4
  %62 = load i32, ptr %15, align 4
  %63 = add i32 %62, 1
  store i32 %63, ptr %15, align 4
  br label %64

64:                                               ; preds = %47
  %65 = load i8, ptr %16, align 1
  %66 = add i8 %65, 1
  store i8 %66, ptr %16, align 1
  br label %41, !llvm.loop !15

67:                                               ; preds = %41
  br label %68

68:                                               ; preds = %67, %7
  %69 = load i32, ptr %15, align 4
  %70 = load i32, ptr %11, align 4
  %71 = sub i32 %69, %70
  %72 = trunc i32 %71 to i16
  call void @llvm.lifetime.end.p0(i64 4, ptr %18) #5
  call void @llvm.lifetime.end.p0(i64 8, ptr %17) #5
  call void @llvm.lifetime.end.p0(i64 1, ptr %16) #5
  call void @llvm.lifetime.end.p0(i64 4, ptr %15) #5
  ret i16 %72
}