; Function Attrs: null_pointer_is_valid sspstrong uwtable
define internal zeroext i16 @be_pos_data(ptr noundef %0, ptr noundef %1, ptr readnone captures(none) %2, i32 noundef %3, i32 noundef %4, ptr readnone captures(none) %5, i32 %6) #1 {
  %8 = alloca i64, align 8
  call void @llvm.lifetime.start.p0(i64 8, ptr nonnull %8) #4
  %9 = shl i32 %3, 3
  %10 = load i32, ptr @hf_gsm_a_bssmap_spare, align 4
  %11 = tail call ptr @proto_tree_add_bits_item(ptr noundef %1, i32 noundef %10, ptr noundef %0, i32 noundef %9, i32 noundef 4, i32 noundef 0)
  %12 = or disjoint i32 %9, 4
  %13 = load i32, ptr @hf_gsm_a_bssmap_positioning_data_discriminator, align 4
  %14 = call ptr @proto_tree_add_bits_ret_val(ptr noundef %1, i32 noundef %13, ptr noundef %0, i32 noundef %12, i32 noundef 4, ptr noundef nonnull %8, i32 noundef 0)
  %15 = add i32 %3, 1
  %16 = load i64, ptr %8, align 8
  %17 = icmp eq i64 %16, 0
  br i1 %17, label %.preheader, label %.loopexit

.preheader:                                       ; preds = %7
  %18 = add i32 %4, -1
  %.not = icmp eq i32 %18, 0
  br i1 %.not, label %.loopexit, label %.lr.ph

.lr.ph:                                           ; preds = %.preheader, %.lr.ph
  %.0.in28 = phi i32 [ %.0, %.lr.ph ], [ %9, %.preheader ]
  %.02427 = phi i8 [ %25, %.lr.ph ], [ 0, %.preheader ]
  %.126 = phi i32 [ %24, %.lr.ph ], [ %15, %.preheader ]
  %.0 = add i32 %.0.in28, 8
  %19 = load i32, ptr @hf_gsm_a_bssmap_positioning_method, align 4
  %20 = call ptr @proto_tree_add_bits_item(ptr noundef %1, i32 noundef %19, ptr noundef %0, i32 noundef %.0, i32 noundef 5, i32 noundef 0)
  %21 = or disjoint i32 %.0, 5
  %22 = load i32, ptr @hf_gsm_a_bssmap_positioning_method_usage, align 4
  %23 = call ptr @proto_tree_add_bits_item(ptr noundef %1, i32 noundef %22, ptr noundef %0, i32 noundef %21, i32 noundef 3, i32 noundef 0)
  %24 = add i32 %.126, 1
  %25 = add i8 %.02427, 1
  %26 = zext i8 %25 to i32
  %27 = icmp ugt i32 %18, %26
  br i1 %27, label %.lr.ph, label %.loopexit, !llvm.loop !13

.loopexit:                                        ; preds = %.lr.ph, %.preheader, %7
  %.025 = phi i32 [ %15, %7 ], [ %15, %.preheader ], [ %24, %.lr.ph ]
  %28 = sub i32 %.025, %3
  %29 = trunc i32 %28 to i16
  call void @llvm.lifetime.end.p0(i64 8, ptr nonnull %8) #4
  ret i16 %29
}